target datalayout = "e-m:e-p270:32:32-p271:32:32-p272:64:64-i64:64-i128:128-f80:128-n8:16:32:64-S128"
target triple = "x86_64-pc-linux-gnu"

%"class.google::protobuf::internal::LogMessage" = type { i32, ptr, i32, %"class.std::__cxx11::basic_string" }
%"class.std::__cxx11::basic_string" = type { %"struct.std::__cxx11::basic_string<char>::_Alloc_hider", i64, %union.anon }
%"struct.std::__cxx11::basic_string<char>::_Alloc_hider" = type { ptr }
%union.anon = type { i64, [8 x i8] }

@_ZN6google8protobuf8internalL12log_handler_B5cxx11E = internal global ptr @_ZN6google8protobuf8internal17DefaultLogHandlerENS0_8LogLevelEPKciRKNSt7__cxx1112basic_stringIcSt11char_traitsIcESaIcEEE, align 8
@_ZTIN6google8protobuf14FatalExceptionE = constant { ptr, ptr, ptr } { ptr getelementptr inbounds (ptr, ptr @_ZTVN10__cxxabiv120__si_class_type_infoE, i64 2), ptr @_ZTSN6google8protobuf14FatalExceptionE, ptr @_ZTISt9exception }, align 8
@_ZN6google8protobuf8internalL19log_silencer_count_E = internal global { i32 } zeroinitializer, align 4
@_ZN6google8protobuf14FatalExceptionD1Ev = unnamed_addr alias void (ptr), ptr @_ZN6google8protobuf14FatalExceptionD2Ev

; Function Attrs: noreturn nounwind uwtable
define linkonce_odr hidden void @__clang_call_terminate(ptr noundef %0) #9 comdat {
  %2 = call ptr @__cxa_begin_catch(ptr %0) #3
  call void @_ZSt9terminatev() #11
  unreachable
}

; Function Attrs: mustprogress nounwind uwtable
define linkonce_odr noundef i32 @_ZStanSt12memory_orderSt23__memory_order_modifier(i32 noundef %0, i32 noundef %1) #5 comdat {
  %3 = alloca i32, align 4
  %4 = alloca i32, align 4
  store i32 %0, ptr %3, align 4
  store i32 %1, ptr %4, align 4
  %5 = load i32, ptr %3, align 4
  %6 = load i32, ptr %4, align 4
  %7 = and i32 %5, %6
  ret i32 %7
}

; Function Attrs: mustprogress nounwind uwtable
define linkonce_odr noundef i32 @_ZNKSt13__atomic_baseIiEcviEv(ptr noundef nonnull align 4 dereferenceable(4) %0) #5 comdat align 2 personality ptr @__gxx_personality_v0 {
  %2 = alloca ptr, align 8
  %3 = alloca i32, align 4
  %4 = alloca i32, align 4
  %5 = alloca i32, align 4
  %6 = alloca ptr, align 8
  store ptr %0, ptr %6, align 8
  %7 = load ptr, ptr %6, align 8
  store ptr %7, ptr %2, align 8
  store i32 5, ptr %3, align 4
  %8 = load ptr, ptr %2, align 8
  %9 = load i32, ptr %3, align 4
  %10 = invoke noundef i32 @_ZStanSt12memory_orderSt23__memory_order_modifier(i32 noundef %9, i32 noundef 65535)
          to label %11 unwind label %19

11:                                               ; preds = %1
  store i32 %10, ptr %4, align 4
  %12 = load i32, ptr %3, align 4
  switch i32 %12, label %13 [
    i32 1, label %15
    i32 2, label %15
    i32 5, label %17
  ]

13:                                               ; preds = %11
  %14 = load atomic i32, ptr %8 monotonic, align 4
  store i32 %14, ptr %5, align 4
  br label %22

15:                                               ; preds = %11, %11
  %16 = load atomic i32, ptr %8 acquire, align 4
  store i32 %16, ptr %5, align 4
  br label %22

17:                                               ; preds = %11
  %18 = load atomic i32, ptr %8 seq_cst, align 4
  store i32 %18, ptr %5, align 4
  br label %22

19:                                               ; preds = %1
  %20 = landingpad { ptr, i32 }
          catch ptr null
  %21 = extractvalue { ptr, i32 } %20, 0
  call void @__clang_call_terminate(ptr %21) #11
  unreachable

22:                                               ; preds = %17, %15, %13
  %23 = load i32, ptr %5, align 4
  ret i32 %23
}

; Function Attrs: mustprogress uwtable
define void @_ZN6google8protobuf8internal10LogMessage6FinishEv(ptr noundef nonnull align 8 dereferenceable(56) %0) #4 align 2 personality ptr @__gxx_personality_v0 {
  %2 = alloca ptr, align 8
  %3 = alloca i8, align 1
  %4 = alloca ptr, align 8
  %5 = alloca i32, align 4
  store ptr %0, ptr %2, align 8
  %6 = load ptr, ptr %2, align 8
  store i8 0, ptr %3, align 1
  %7 = getelementptr inbounds %"class.google::protobuf::internal::LogMessage", ptr %6, i32 0, i32 0
  %8 = load i32, ptr %7, align 8
  %9 = icmp ne i32 %8, 3
  br i1 %9, label %10, label %14

10:                                               ; preds = %1
  %11 = call noundef i32 @_ZNKSt13__atomic_baseIiEcviEv(ptr noundef nonnull align 4 dereferenceable(4) @_ZN6google8protobuf8internalL19log_silencer_count_E) #3
  %12 = icmp sgt i32 %11, 0
  %13 = zext i1 %12 to i8
  store i8 %13, ptr %3, align 1
  br label %14

14:                                               ; preds = %10, %1
  %15 = load i8, ptr %3, align 1
  %16 = trunc i8 %15 to i1
  br i1 %16, label %26, label %17

17:                                               ; preds = %14
  %18 = load ptr, ptr @_ZN6google8protobuf8internalL12log_handler_B5cxx11E, align 8
  %19 = getelementptr inbounds %"class.google::protobuf::internal::LogMessage", ptr %6, i32 0, i32 0
  %20 = load i32, ptr %19, align 8
  %21 = getelementptr inbounds %"class.google::protobuf::internal::LogMessage", ptr %6, i32 0, i32 1
  %22 = load ptr, ptr %21, align 8
  %23 = getelementptr inbounds %"class.google::protobuf::internal::LogMessage", ptr %6, i32 0, i32 2
  %24 = load i32, ptr %23, align 8
  %25 = getelementptr inbounds %"class.google::protobuf::internal::LogMessage", ptr %6, i32 0, i32 3
  call void %18(i32 noundef %20, ptr noundef %22, i32 noundef %24, ptr noundef nonnull align 8 dereferenceable(32) %25)
  br label %26

26:                                               ; preds = %17, %14
  %27 = getelementptr inbounds %"class.google::protobuf::internal::LogMessage", ptr %6, i32 0, i32 0
  %28 = load i32, ptr %27, align 8
  %29 = icmp eq i32 %28, 3
  br i1 %29, label %30, label %42

30:                                               ; preds = %26
  %31 = call ptr @__cxa_allocate_exception(i64 56) #3
  %32 = getelementptr inbounds %"class.google::protobuf::internal::LogMessage", ptr %6, i32 0, i32 1
  %33 = load ptr, ptr %32, align 8
  %34 = getelementptr inbounds %"class.google::protobuf::internal::LogMessage", ptr %6, i32 0, i32 2
  %35 = load i32, ptr %34, align 8
  %36 = getelementptr inbounds %"class.google::protobuf::internal::LogMessage", ptr %6, i32 0, i32 3
  invoke void @_ZN6google8protobuf14FatalExceptionC2EPKciRKNSt7__cxx1112basic_stringIcSt11char_traitsIcESaIcEEE(ptr noundef nonnull align 8 dereferenceable(56) %31, ptr noundef %33, i32 noundef %35, ptr noundef nonnull align 8 dereferenceable(32) %36)
          to label %37 unwind label %38

37:                                               ; preds = %30
  call void @__cxa_throw(ptr %31, ptr @_ZTIN6google8protobuf14FatalExceptionE, ptr @_ZN6google8protobuf14FatalExceptionD1Ev) #10
  unreachable

38:                                               ; preds = %30
  %39 = landingpad { ptr, i32 }
          cleanup
  %40 = extractvalue { ptr, i32 } %39, 0
  store ptr %40, ptr %4, align 8
  %41 = extractvalue { ptr, i32 } %39, 1
  store i32 %41, ptr %5, align 4
  call void @__cxa_free_exception(ptr %31) #3
  br label %43

42:                                               ; preds = %26
  ret void

43:                                               ; preds = %38
  %44 = load ptr, ptr %4, align 8
  %45 = load i32, ptr %5, align 4
  %46 = insertvalue { ptr, i32 } poison, ptr %44, 0
  %47 = insertvalue { ptr, i32 } %46, i32 %45, 1
  resume { ptr, i32 } %47
}