; Function Attrs: mustprogress uwtable
define void @_ZN6google8protobuf8internal10LogMessage6FinishEv(ptr noundef nonnull align 8 dereferenceable(56) %0) local_unnamed_addr #3 align 2 personality ptr @__gxx_personality_v0 {
  %2 = load i32, ptr %0, align 8
  %.not = icmp eq i32 %2, 3
  br i1 %.not, label %.critedge, label %3

3:                                                ; preds = %1
  %4 = load atomic i32, ptr @_ZN6google8protobuf8internalL19log_silencer_count_E seq_cst, align 4
  %5 = icmp sgt i32 %4, 0
  br i1 %5, label %13, label %..critedge_crit_edge

..critedge_crit_edge:                             ; preds = %3
  %.pre = load i32, ptr %0, align 8
  br label %.critedge

.critedge:                                        ; preds = %..critedge_crit_edge, %1
  %6 = phi i32 [ %.pre, %..critedge_crit_edge ], [ 3, %1 ]
  %7 = load ptr, ptr @_ZN6google8protobuf8internalL12log_handler_B5cxx11E, align 8
  %8 = getelementptr inbounds i8, ptr %0, i64 8
  %9 = load ptr, ptr %8, align 8
  %10 = getelementptr inbounds i8, ptr %0, i64 16
  %11 = load i32, ptr %10, align 8
  %12 = getelementptr inbounds i8, ptr %0, i64 24
  tail call void %7(i32 noundef %6, ptr noundef %9, i32 noundef %11, ptr noundef nonnull align 8 dereferenceable(32) %12)
  br label %13

13:                                               ; preds = %.critedge, %3
  %14 = load i32, ptr %0, align 8
  %15 = icmp eq i32 %14, 3
  br i1 %15, label %16, label %26

16:                                               ; preds = %13
  %17 = tail call ptr @__cxa_allocate_exception(i64 56) #16
  %18 = getelementptr inbounds i8, ptr %0, i64 8
  %19 = load ptr, ptr %18, align 8
  %20 = getelementptr inbounds i8, ptr %0, i64 16
  %21 = load i32, ptr %20, align 8
  %22 = getelementptr inbounds i8, ptr %0, i64 24
  invoke void @_ZN6google8protobuf14FatalExceptionC2EPKciRKNSt7__cxx1112basic_stringIcSt11char_traitsIcESaIcEEE(ptr noundef nonnull align 8 dereferenceable(56) %17, ptr noundef %19, i32 noundef %21, ptr noundef nonnull align 8 dereferenceable(32) %22)
          to label %23 unwind label %24

23:                                               ; preds = %16
  tail call void @__cxa_throw(ptr nonnull %17, ptr nonnull @_ZTIN6google8protobuf14FatalExceptionE, ptr nonnull @_ZN6google8protobuf14FatalExceptionD1Ev) #17
  unreachable

24:                                               ; preds = %16
  %25 = landingpad { ptr, i32 }
          cleanup
  tail call void @__cxa_free_exception(ptr %17) #16
  resume { ptr, i32 } %25

26:                                               ; preds = %13
  ret void
}